; Function Attrs: mustprogress nounwind uwtable
define internal fastcc noundef ptr @"_ZZL18foldSelectWithSRemRN4llvm10SelectInstERNS_16InstCombinerImplERNS_13IRBuilderBaseEENK3$_0clEPNS_5ValueE"(ptr nocapture noundef nonnull readonly align 8 dereferenceable(24) %0, ptr noundef %1) unnamed_addr #0 align 2 {
  %3 = alloca %"class.llvm::Twine", align 8
  %4 = alloca %"class.llvm::Twine", align 8
  %5 = alloca %"class.llvm::Twine", align 8
  %6 = load ptr, ptr %0, align 8
  %7 = getelementptr inbounds nuw i8, ptr %0, i64 8
  %8 = load ptr, ptr %7, align 8
  %9 = load ptr, ptr %8, align 8
  %10 = getelementptr inbounds nuw i8, ptr %9, i64 8
  %11 = load ptr, ptr %10, align 8
  %12 = tail call noundef ptr @_ZN4llvm8Constant15getAllOnesValueEPNS_4TypeE(ptr noundef %11) #17
  %13 = getelementptr inbounds nuw i8, ptr %4, i64 32
  %14 = getelementptr inbounds nuw i8, ptr %6, i64 80
  store i16 257, ptr %13, align 8
  %15 = load ptr, ptr %14, align 8
  %16 = load ptr, ptr %15, align 8
  %17 = getelementptr inbounds i8, ptr %16, i64 32
  %18 = load ptr, ptr %17, align 8
  %19 = tail call noundef ptr %18(ptr noundef nonnull align 8 dereferenceable(8) %15, i32 noundef 13, ptr noundef %1, ptr noundef %12, i1 noundef zeroext false, i1 noundef zeroext false) #17
  %.not.i = icmp eq ptr %19, null
  br i1 %.not.i, label %20, label %_ZN4llvm13IRBuilderBase9CreateAddEPNS_5ValueES2_RKNS_5TwineEbb.exit

20:                                               ; preds = %2
  call void @llvm.lifetime.start.p0(i64 40, ptr nonnull %3)
  %21 = getelementptr inbounds nuw i8, ptr %3, i64 32
  store i8 1, ptr %21, align 8
  %22 = getelementptr inbounds nuw i8, ptr %3, i64 33
  store i8 1, ptr %22, align 1
  %23 = call noundef ptr @_ZN4llvm14BinaryOperator6CreateENS_11Instruction9BinaryOpsEPNS_5ValueES4_RKNS_5TwineENS_14InsertPositionE(i32 noundef 13, ptr noundef %1, ptr noundef %12, ptr noundef nonnull align 8 dereferenceable(34) %3, ptr null, i64 0) #17
  %24 = getelementptr inbounds nuw i8, ptr %6, i64 88
  %25 = load ptr, ptr %24, align 8
  %26 = getelementptr inbounds nuw i8, ptr %6, i64 56
  %.sroa.0.0.copyload.i.i = load ptr, ptr %26, align 8
  %.sroa.2.0..sroa_idx.i.i = getelementptr inbounds i8, ptr %6, i64 64
  %.sroa.2.0.copyload.i.i = load i64, ptr %.sroa.2.0..sroa_idx.i.i, align 8
  %27 = load ptr, ptr %25, align 8
  %28 = getelementptr inbounds i8, ptr %27, i64 16
  %29 = load ptr, ptr %28, align 8
  call void %29(ptr noundef nonnull align 8 dereferenceable(8) %25, ptr noundef %23, ptr noundef nonnull align 8 dereferenceable(34) %4, ptr %.sroa.0.0.copyload.i.i, i64 %.sroa.2.0.copyload.i.i) #17
  %30 = load ptr, ptr %6, align 8
  %31 = call noundef i64 @_ZNK4llvm15SmallVectorBaseIjE4sizeEv(ptr noundef nonnull align 8 dereferenceable(16) %6) #17
  %32 = getelementptr inbounds %"struct.std::pair", ptr %30, i64 %31
  %.not10.i.i.i = icmp eq i64 %31, 0
  br i1 %.not10.i.i.i, label %_ZN4llvm13IRBuilderBase23CreateInsertNUWNSWBinOpENS_11Instruction9BinaryOpsEPNS_5ValueES4_RKNS_5TwineEbb.exit, label %.lr.ph.i.i.i

.lr.ph.i.i.i:                                     ; preds = %20, %.lr.ph.i.i.i
  %.011.i.i.i = phi ptr [ %36, %.lr.ph.i.i.i ], [ %30, %20 ]
  %33 = load i32, ptr %.011.i.i.i, align 8
  %34 = getelementptr inbounds nuw i8, ptr %.011.i.i.i, i64 8
  %35 = load ptr, ptr %34, align 8
  call void @_ZN4llvm11Instruction11setMetadataEjPNS_6MDNodeE(ptr noundef nonnull align 8 dereferenceable(72) %23, i32 noundef %33, ptr noundef %35) #17
  %36 = getelementptr inbounds i8, ptr %.011.i.i.i, i64 16
  %.not.i.i.i = icmp eq ptr %36, %32
  br i1 %.not.i.i.i, label %_ZN4llvm13IRBuilderBase23CreateInsertNUWNSWBinOpENS_11Instruction9BinaryOpsEPNS_5ValueES4_RKNS_5TwineEbb.exit, label %.lr.ph.i.i.i

_ZN4llvm13IRBuilderBase23CreateInsertNUWNSWBinOpENS_11Instruction9BinaryOpsEPNS_5ValueES4_RKNS_5TwineEbb.exit: ; preds = %.lr.ph.i.i.i, %20
  call void @llvm.lifetime.end.p0(i64 40, ptr nonnull %3)
  br label %_ZN4llvm13IRBuilderBase9CreateAddEPNS_5ValueES2_RKNS_5TwineEbb.exit

_ZN4llvm13IRBuilderBase9CreateAddEPNS_5ValueES2_RKNS_5TwineEbb.exit: ; preds = %2, %_ZN4llvm13IRBuilderBase23CreateInsertNUWNSWBinOpENS_11Instruction9BinaryOpsEPNS_5ValueES4_RKNS_5TwineEbb.exit
  %.0.i = phi ptr [ %23, %_ZN4llvm13IRBuilderBase23CreateInsertNUWNSWBinOpENS_11Instruction9BinaryOpsEPNS_5ValueES4_RKNS_5TwineEbb.exit ], [ %19, %2 ]
  %37 = getelementptr inbounds nuw i8, ptr %0, i64 16
  %38 = load ptr, ptr %37, align 8
  %39 = load ptr, ptr %38, align 8
  %40 = getelementptr inbounds nuw i8, ptr %5, i64 32
  store i16 257, ptr %40, align 8
  %41 = call noundef ptr @_ZN4llvm14BinaryOperator6CreateENS_11Instruction9BinaryOpsEPNS_5ValueES4_RKNS_5TwineENS_14InsertPositionE(i32 noundef 28, ptr noundef %39, ptr noundef %.0.i, ptr noundef nonnull align 8 dereferenceable(34) %5, ptr null, i64 0) #17
  ret ptr %41
}